target datalayout = "e-m:e-p270:32:32-p271:32:32-p272:64:64-i64:64-i128:128-f80:128-n8:16:32:64-S128"
target triple = "x86_64-pc-linux-gnu"

%struct._GC_arrays = type { i64, i64, i64, ptr, i64, i64, i64, i64, i64, i64, i64, i64, i64, i64, ptr, ptr, ptr, ptr, ptr, ptr, ptr, ptr, i32, i32, i32, i64, i64, i64, i64, i64, ptr, ptr, ptr, i64, i64, i32, i64, i64, ptr, i64, %struct.dl_hashtbl_s, %struct.dl_hashtbl_s, %struct.fnlz_roots_s, i32, ptr, i64, i64, i32, i32, i64, i64, i64, ptr, [64 x ptr], [8 x i8], [64 x ptr], [129 x ptr], [129 x ptr], [129 x ptr], [129 x ptr], [2049 x i64], [129 x ptr], [4096 x i8], [4096 x i64], [4096 x i64], ptr, [2048 x %struct.roots], [512 x %struct.exclusion], [2048 x ptr] }
%struct.dl_hashtbl_s = type { ptr, i64, i32 }
%struct.fnlz_roots_s = type { ptr, ptr }
%struct.roots = type { ptr, ptr, ptr, i32 }
%struct.exclusion = type { ptr, ptr }

@GC_arrays = global %struct._GC_arrays zeroinitializer, align 8
@GC_print_stats = internal global i32 0, align 4
@GC_page_size = internal global i64 0, align 8
@GC_current_warn_proc = internal global ptr @GC_default_warn_proc, align 8
@.str.147 = private unnamed_addr constant [80 x i8] c"GC Warning: Out of memory - trying to allocate requested amount (%lu bytes)...\0A\00", align 1
@.str.148 = private unnamed_addr constant [23 x i8] c"Got %lu bytes from OS\0A\00", align 1

; Function Attrs: nounwind uwtable
define internal ptr @GC_os_get_mem(i64 noundef %0) #0 {
  %2 = alloca ptr, align 8
  %3 = alloca i64, align 8
  %4 = alloca ptr, align 8
  store i64 %0, ptr %3, align 8
  %5 = load i64, ptr %3, align 8
  %6 = call ptr @GC_unix_get_mem(i64 noundef %5)
  store ptr %6, ptr %4, align 8
  %7 = load ptr, ptr %4, align 8
  %8 = icmp eq ptr null, %7
  %9 = zext i1 %8 to i32
  %10 = sext i32 %9 to i64
  %11 = icmp ne i64 %10, 0
  br i1 %11, label %12, label %13

12:                                               ; preds = %1
  store ptr null, ptr %2, align 8
  br label %29

13:                                               ; preds = %1
  %14 = load i64, ptr %3, align 8
  %15 = getelementptr inbounds %struct._GC_arrays, ptr @GC_arrays, i32 0, i32 8
  %16 = load i64, ptr %15, align 8
  %17 = add i64 %16, %14
  %18 = getelementptr inbounds %struct._GC_arrays, ptr @GC_arrays, i32 0, i32 8
  store i64 %17, ptr %18, align 8
  %19 = load i32, ptr @GC_print_stats, align 4
  %20 = icmp ne i32 %19, 2
  %21 = zext i1 %20 to i32
  %22 = sext i32 %21 to i64
  %23 = icmp ne i64 %22, 0
  br i1 %23, label %24, label %25

24:                                               ; preds = %13
  br label %27

25:                                               ; preds = %13
  %26 = load i64, ptr %3, align 8
  call void (ptr, ...) @GC_log_printf(ptr noundef @.str.148, i64 noundef %26)
  br label %27

27:                                               ; preds = %25, %24
  %28 = load ptr, ptr %4, align 8
  store ptr %28, ptr %2, align 8
  br label %29

29:                                               ; preds = %27, %12
  %30 = load ptr, ptr %2, align 8
  ret ptr %30
}

; Function Attrs: nounwind uwtable
define internal ptr @GC_scratch_alloc(i64 noundef %0) #0 {
  %2 = alloca ptr, align 8
  %3 = alloca i64, align 8
  %4 = alloca ptr, align 8
  %5 = alloca i64, align 8
  store i64 %0, ptr %3, align 8
  %6 = getelementptr inbounds %struct._GC_arrays, ptr @GC_arrays, i32 0, i32 16
  %7 = load ptr, ptr %6, align 8
  store ptr %7, ptr %4, align 8
  %8 = load i64, ptr %3, align 8
  %9 = icmp ult i64 %8, -16
  %10 = zext i1 %9 to i32
  %11 = sext i32 %10 to i64
  %12 = icmp ne i64 %11, 0
  br i1 %12, label %13, label %16

13:                                               ; preds = %1
  %14 = load i64, ptr %3, align 8
  %15 = add i64 %14, 15
  br label %17

16:                                               ; preds = %1
  br label %17

17:                                               ; preds = %16, %13
  %18 = phi i64 [ %15, %13 ], [ -1, %16 ]
  %19 = and i64 %18, -16
  store i64 %19, ptr %3, align 8
  br label %20

20:                                               ; preds = %122, %17
  %21 = load i64, ptr %3, align 8
  %22 = getelementptr inbounds %struct._GC_arrays, ptr @GC_arrays, i32 0, i32 18
  %23 = load ptr, ptr %22, align 8
  %24 = ptrtoint ptr %23 to i64
  %25 = load ptr, ptr %4, align 8
  %26 = ptrtoint ptr %25 to i64
  %27 = sub i64 %24, %26
  %28 = icmp ule i64 %21, %27
  br i1 %28, label %29, label %35

29:                                               ; preds = %20
  %30 = load ptr, ptr %4, align 8
  %31 = load i64, ptr %3, align 8
  %32 = getelementptr inbounds i8, ptr %30, i64 %31
  %33 = getelementptr inbounds %struct._GC_arrays, ptr @GC_arrays, i32 0, i32 16
  store ptr %32, ptr %33, align 8
  %34 = load ptr, ptr %4, align 8
  store ptr %34, ptr %2, align 8
  br label %130

35:                                               ; preds = %20
  %36 = load i64, ptr %3, align 8
  %37 = icmp uge i64 %36, 65536
  br i1 %37, label %38, label %66

38:                                               ; preds = %35
  %39 = load i64, ptr %3, align 8
  %40 = load i64, ptr @GC_page_size, align 8
  %41 = sub i64 %40, 1
  %42 = sub i64 -1, %41
  %43 = icmp ult i64 %39, %42
  %44 = zext i1 %43 to i32
  %45 = sext i32 %44 to i64
  %46 = icmp ne i64 %45, 0
  br i1 %46, label %47, label %52

47:                                               ; preds = %38
  %48 = load i64, ptr %3, align 8
  %49 = load i64, ptr @GC_page_size, align 8
  %50 = sub i64 %49, 1
  %51 = add i64 %48, %50
  br label %53

52:                                               ; preds = %38
  br label %53

53:                                               ; preds = %52, %47
  %54 = phi i64 [ %51, %47 ], [ -1, %52 ]
  %55 = load i64, ptr @GC_page_size, align 8
  %56 = sub i64 %55, 1
  %57 = xor i64 %56, -1
  %58 = and i64 %54, %57
  store i64 %58, ptr %5, align 8
  %59 = load i64, ptr %5, align 8
  %60 = call ptr @GC_os_get_mem(i64 noundef %59)
  store ptr %60, ptr %4, align 8
  %61 = load ptr, ptr %4, align 8
  %62 = icmp ne ptr %61, null
  br i1 %62, label %63, label %64

63:                                               ; preds = %53
  br label %64

64:                                               ; preds = %63, %53
  %65 = load ptr, ptr %4, align 8
  store ptr %65, ptr %2, align 8
  br label %130

66:                                               ; preds = %35
  %67 = load i64, ptr @GC_page_size, align 8
  %68 = sub i64 %67, 1
  %69 = sub i64 -1, %68
  %70 = icmp ult i64 65536, %69
  %71 = zext i1 %70 to i32
  %72 = sext i32 %71 to i64
  %73 = icmp ne i64 %72, 0
  br i1 %73, label %74, label %78

74:                                               ; preds = %66
  %75 = load i64, ptr @GC_page_size, align 8
  %76 = sub i64 %75, 1
  %77 = add i64 65536, %76
  br label %79

78:                                               ; preds = %66
  br label %79

79:                                               ; preds = %78, %74
  %80 = phi i64 [ %77, %74 ], [ -1, %78 ]
  %81 = load i64, ptr @GC_page_size, align 8
  %82 = sub i64 %81, 1
  %83 = xor i64 %82, -1
  %84 = and i64 %80, %83
  store i64 %84, ptr %5, align 8
  %85 = load i64, ptr %5, align 8
  %86 = call ptr @GC_os_get_mem(i64 noundef %85)
  store ptr %86, ptr %4, align 8
  %87 = load ptr, ptr %4, align 8
  %88 = icmp eq ptr null, %87
  %89 = zext i1 %88 to i32
  %90 = sext i32 %89 to i64
  %91 = icmp ne i64 %90, 0
  br i1 %91, label %92, label %122

92:                                               ; preds = %79
  %93 = load ptr, ptr @GC_current_warn_proc, align 8
  %94 = load i64, ptr %3, align 8
  call void %93(ptr noundef @.str.147, i64 noundef %94)
  %95 = load i64, ptr %3, align 8
  %96 = load i64, ptr @GC_page_size, align 8
  %97 = sub i64 %96, 1
  %98 = sub i64 -1, %97
  %99 = icmp ult i64 %95, %98
  %100 = zext i1 %99 to i32
  %101 = sext i32 %100 to i64
  %102 = icmp ne i64 %101, 0
  br i1 %102, label %103, label %108

103:                                              ; preds = %92
  %104 = load i64, ptr %3, align 8
  %105 = load i64, ptr @GC_page_size, align 8
  %106 = sub i64 %105, 1
  %107 = add i64 %104, %106
  br label %109

108:                                              ; preds = %92
  br label %109

109:                                              ; preds = %108, %103
  %110 = phi i64 [ %107, %103 ], [ -1, %108 ]
  %111 = load i64, ptr @GC_page_size, align 8
  %112 = sub i64 %111, 1
  %113 = xor i64 %112, -1
  %114 = and i64 %110, %113
  store i64 %114, ptr %5, align 8
  %115 = load i64, ptr %5, align 8
  %116 = call ptr @GC_os_get_mem(i64 noundef %115)
  store ptr %116, ptr %4, align 8
  %117 = load ptr, ptr %4, align 8
  %118 = icmp ne ptr %117, null
  br i1 %118, label %119, label %120

119:                                              ; preds = %109
  br label %120

120:                                              ; preds = %119, %109
  %121 = load ptr, ptr %4, align 8
  store ptr %121, ptr %2, align 8
  br label %130

122:                                              ; preds = %79
  %123 = load ptr, ptr %4, align 8
  %124 = getelementptr inbounds %struct._GC_arrays, ptr @GC_arrays, i32 0, i32 16
  store ptr %123, ptr %124, align 8
  %125 = getelementptr inbounds %struct._GC_arrays, ptr @GC_arrays, i32 0, i32 16
  %126 = load ptr, ptr %125, align 8
  %127 = load i64, ptr %5, align 8
  %128 = getelementptr inbounds i8, ptr %126, i64 %127
  %129 = getelementptr inbounds %struct._GC_arrays, ptr @GC_arrays, i32 0, i32 18
  store ptr %128, ptr %129, align 8
  br label %20

130:                                              ; preds = %120, %64, %29
  %131 = load ptr, ptr %2, align 8
  ret ptr %131
}