; Function Attrs: nounwind uwtable
define internal fastcc ptr @GC_scratch_alloc(i64 noundef %0) unnamed_addr #1 {
  %2 = load ptr, ptr getelementptr inbounds nuw (i8, ptr @GC_arrays, i64 128), align 8
  %3 = tail call i64 @llvm.uadd.sat.i64(i64 %0, i64 15)
  %4 = and i64 %3, -16
  %5 = load ptr, ptr getelementptr inbounds nuw (i8, ptr @GC_arrays, i64 144), align 8
  %6 = ptrtoint ptr %5 to i64
  %7 = ptrtoint ptr %2 to i64
  %8 = sub i64 %6, %7
  %.not32 = icmp ugt i64 %4, %8
  br i1 %.not32, label %.lr.ph, label %._crit_edge

.lr.ph:                                           ; preds = %1
  %9 = icmp ugt i64 %3, 65535
  br i1 %9, label %19, label %.lr.ph.split

._crit_edge:                                      ; preds = %54, %1
  %.0.lcssa = phi ptr [ %2, %1 ], [ %17, %54 ]
  %10 = getelementptr inbounds i8, ptr %.0.lcssa, i64 %4
  store ptr %10, ptr getelementptr inbounds nuw (i8, ptr @GC_arrays, i64 128), align 8
  br label %GC_os_get_mem.exit

.lr.ph.split:                                     ; preds = %.lr.ph, %54
  %11 = load i64, ptr @GC_page_size, align 8
  %notsub = add nsw i64 %11, -1
  %12 = icmp ult i64 %notsub, -65537
  %13 = add nsw i64 %11, 65535
  %14 = select i1 %12, i64 %13, i64 -1
  %15 = sub i64 0, %11
  %16 = and i64 %14, %15
  %17 = tail call ptr @GC_unix_get_mem(i64 noundef %16)
  %18 = icmp eq ptr %17, null
  br i1 %18, label %GC_os_get_mem.exit27, label %34

19:                                               ; preds = %.lr.ph
  %20 = load i64, ptr @GC_page_size, align 8
  %21 = sub nsw i64 0, %20
  %22 = icmp ult i64 %4, %21
  %23 = add i64 %4, -1
  %24 = add i64 %23, %20
  %25 = select i1 %22, i64 %24, i64 -1
  %26 = and i64 %25, %21
  %27 = tail call ptr @GC_unix_get_mem(i64 noundef %26)
  %28 = icmp eq ptr %27, null
  br i1 %28, label %GC_os_get_mem.exit, label %29

29:                                               ; preds = %19
  %30 = load i64, ptr getelementptr inbounds nuw (i8, ptr @GC_arrays, i64 64), align 8
  %31 = add i64 %30, %26
  store i64 %31, ptr getelementptr inbounds nuw (i8, ptr @GC_arrays, i64 64), align 8
  %32 = load i32, ptr @GC_print_stats, align 4
  %.not.i = icmp eq i32 %32, 2
  br i1 %.not.i, label %33, label %GC_os_get_mem.exit

33:                                               ; preds = %29
  tail call void (ptr, ...) @GC_log_printf(ptr noundef nonnull @.str.148, i64 noundef %26)
  br label %GC_os_get_mem.exit

34:                                               ; preds = %.lr.ph.split
  %35 = load i64, ptr getelementptr inbounds nuw (i8, ptr @GC_arrays, i64 64), align 8
  %36 = add i64 %35, %16
  store i64 %36, ptr getelementptr inbounds nuw (i8, ptr @GC_arrays, i64 64), align 8
  %37 = load i32, ptr @GC_print_stats, align 4
  %.not.i26 = icmp eq i32 %37, 2
  br i1 %.not.i26, label %38, label %54

38:                                               ; preds = %34
  tail call void (ptr, ...) @GC_log_printf(ptr noundef nonnull @.str.148, i64 noundef %16)
  br label %54

GC_os_get_mem.exit27:                             ; preds = %.lr.ph.split
  %39 = load ptr, ptr @GC_current_warn_proc, align 8
  tail call void %39(ptr noundef nonnull @.str.147, i64 noundef %4) #41
  %40 = load i64, ptr @GC_page_size, align 8
  %41 = sub nsw i64 0, %40
  %42 = icmp ult i64 %4, %41
  %43 = add nsw i64 %4, -1
  %44 = add i64 %43, %40
  %45 = select i1 %42, i64 %44, i64 -1
  %46 = and i64 %45, %41
  %47 = tail call ptr @GC_unix_get_mem(i64 noundef %46)
  %48 = icmp eq ptr %47, null
  br i1 %48, label %GC_os_get_mem.exit, label %49

49:                                               ; preds = %GC_os_get_mem.exit27
  %50 = load i64, ptr getelementptr inbounds nuw (i8, ptr @GC_arrays, i64 64), align 8
  %51 = add i64 %50, %46
  store i64 %51, ptr getelementptr inbounds nuw (i8, ptr @GC_arrays, i64 64), align 8
  %52 = load i32, ptr @GC_print_stats, align 4
  %.not.i28 = icmp eq i32 %52, 2
  br i1 %.not.i28, label %53, label %GC_os_get_mem.exit

53:                                               ; preds = %49
  tail call void (ptr, ...) @GC_log_printf(ptr noundef nonnull @.str.148, i64 noundef %46)
  br label %GC_os_get_mem.exit

54:                                               ; preds = %34, %38
  store ptr %17, ptr getelementptr inbounds nuw (i8, ptr @GC_arrays, i64 128), align 8
  %55 = getelementptr inbounds i8, ptr %17, i64 %16
  store ptr %55, ptr getelementptr inbounds nuw (i8, ptr @GC_arrays, i64 144), align 8
  %.not = icmp ugt i64 %4, %16
  br i1 %.not, label %.lr.ph.split, label %._crit_edge

GC_os_get_mem.exit:                               ; preds = %53, %49, %GC_os_get_mem.exit27, %33, %29, %19, %._crit_edge
  %.023 = phi ptr [ %.0.lcssa, %._crit_edge ], [ null, %19 ], [ %27, %29 ], [ %27, %33 ], [ null, %GC_os_get_mem.exit27 ], [ %47, %49 ], [ %47, %53 ]
  ret ptr %.023
}